; Function Attrs: mustprogress uwtable
define hidden void @_ZN4cvc58internal6theory4bags9BagsUtils14evaluateChooseENS0_12NodeTemplateILb0EEE(ptr dead_on_unwind noalias writable writeonly sret(%"class.cvc5::internal::NodeTemplate") align 8 captures(none) %0, ptr noundef readonly captures(none) %1) local_unnamed_addr #3 align 2 personality ptr @__gxx_personality_v0 {
  %3 = load ptr, ptr %1, align 8, !tbaa !24, !noalias !324
  %4 = getelementptr inbounds nuw i8, ptr %3, i64 8
  %5 = load i64, ptr %4, align 8, !noalias !324
  %6 = trunc i64 %5 to i32
  %7 = and i32 %6, 1023
  %8 = icmp eq i32 %7, 1023
  %9 = select i1 %8, i32 -1, i32 %7
  %10 = tail call noundef i32 @_ZN4cvc58internal4kind10metaKindOfENS1_6Kind_tE(i32 noundef %9), !noalias !324
  %11 = icmp eq i32 %10, 2
  %12 = getelementptr inbounds nuw i8, ptr %3, i64 24
  %13 = zext i1 %11 to i64
  %14 = getelementptr inbounds nuw [0 x ptr], ptr %12, i64 0, i64 %13
  %15 = load ptr, ptr %14, align 8, !tbaa !31, !noalias !324
  %16 = getelementptr inbounds nuw i8, ptr %15, i64 8
  %17 = load i64, ptr %16, align 8
  %18 = and i64 %17, 1023
  %19 = icmp eq i64 %18, 299
  br i1 %19, label %20, label %60

20:                                               ; preds = %2
  %21 = load ptr, ptr %1, align 8, !tbaa !24, !noalias !327
  %22 = getelementptr inbounds nuw i8, ptr %21, i64 8
  %23 = load i64, ptr %22, align 8, !noalias !327
  %24 = trunc i64 %23 to i32
  %25 = and i32 %24, 1023
  %26 = icmp eq i32 %25, 1023
  %27 = select i1 %26, i32 -1, i32 %25
  %28 = tail call noundef i32 @_ZN4cvc58internal4kind10metaKindOfENS1_6Kind_tE(i32 noundef %27), !noalias !327
  %29 = icmp eq i32 %28, 2
  %30 = getelementptr inbounds nuw i8, ptr %21, i64 24
  %31 = zext i1 %29 to i64
  %32 = getelementptr inbounds nuw [0 x ptr], ptr %30, i64 0, i64 %31
  %33 = load ptr, ptr %32, align 8, !tbaa !31, !noalias !327
  %34 = getelementptr inbounds nuw i8, ptr %33, i64 8
  %35 = load i64, ptr %34, align 8, !noalias !330
  %36 = trunc i64 %35 to i32
  %37 = and i32 %36, 1023
  %38 = icmp eq i32 %37, 1023
  %39 = select i1 %38, i32 -1, i32 %37
  %40 = tail call noundef i32 @_ZN4cvc58internal4kind10metaKindOfENS1_6Kind_tE(i32 noundef %39)
  %41 = icmp eq i32 %40, 2
  %42 = getelementptr inbounds nuw i8, ptr %33, i64 24
  %43 = zext i1 %41 to i64
  %44 = getelementptr inbounds nuw [0 x ptr], ptr %42, i64 0, i64 %43
  %45 = load ptr, ptr %44, align 8, !tbaa !31, !noalias !330
  store ptr %45, ptr %0, align 8, !tbaa !8
  %46 = load i64, ptr %45, align 8
  %47 = lshr i64 %46, 40
  %48 = trunc nuw nsw i64 %47 to i32
  %49 = and i32 %48, 1048575
  %50 = icmp samesign ult i32 %49, 1048574
  br i1 %50, label %51, label %56, !prof !11

51:                                               ; preds = %20
  %52 = add i64 %46, 1099511627776
  %53 = and i64 %52, 1152920405095219200
  %54 = and i64 %46, -1152920405095219201
  %55 = or disjoint i64 %53, %54
  store i64 %55, ptr %45, align 8
  br label %_ZN4cvc58internal12NodeTemplateILb1EEC2ERKNS1_ILb0EEE.exit

56:                                               ; preds = %20
  %57 = icmp eq i32 %49, 1048574
  br i1 %57, label %58, label %_ZN4cvc58internal12NodeTemplateILb1EEC2ERKNS1_ILb0EEE.exit, !prof !12

58:                                               ; preds = %56
  %59 = or i64 %46, 1152920405095219200
  store i64 %59, ptr %45, align 8
  tail call void @_ZN4cvc58internal4expr9NodeValue20markRefCountMaxedOutEv(ptr noundef nonnull align 8 dereferenceable(24) %45)
  br label %_ZN4cvc58internal12NodeTemplateILb1EEC2ERKNS1_ILb0EEE.exit

_ZN4cvc58internal12NodeTemplateILb1EEC2ERKNS1_ILb0EEE.exit: ; preds = %58, %56, %51
  ret void

60:                                               ; preds = %2
  %61 = tail call ptr @__cxa_allocate_exception(i64 40) #23
  invoke void @_ZN4cvc58internal14LogicExceptionC2EPKc(ptr noundef nonnull align 8 dereferenceable(40) %61, ptr noundef nonnull @.str.4)
          to label %62 unwind label %63

62:                                               ; preds = %60
  tail call void @__cxa_throw(ptr nonnull %61, ptr nonnull @_ZTIN4cvc58internal14LogicExceptionE, ptr nonnull @_ZN4cvc58internal9ExceptionD2Ev) #27
  unreachable

63:                                               ; preds = %60
  %64 = landingpad { ptr, i32 }
          cleanup
  tail call void @__cxa_free_exception(ptr nonnull %61) #23
  resume { ptr, i32 } %64
}